target datalayout = "e-m:e-p270:32:32-p271:32:32-p272:64:64-i64:64-i128:128-f80:128-n8:16:32:64-S128"
target triple = "x86_64-pc-linux-gnu"

%struct.Aig_Obj_t_ = type { %union.anon, ptr, ptr, i64, i32, i32, %union.anon.0 }
%union.anon = type { ptr }
%union.anon.0 = type { ptr }
%struct.Vec_Int_t_ = type { i32, i32, ptr }

; Function Attrs: inlinehint nounwind uwtable
define internal i32 @Aig_IsComplement(ptr noundef %0) #2 {
  %2 = alloca ptr, align 8
  store ptr %0, ptr %2, align 8, !tbaa !8
  %3 = load ptr, ptr %2, align 8, !tbaa !8
  %4 = ptrtoint ptr %3 to i64
  %5 = and i64 %4, 1
  %6 = trunc i64 %5 to i32
  ret i32 %6
}

; Function Attrs: inlinehint nounwind uwtable
define internal ptr @Aig_Regular(ptr noundef %0) #2 {
  %2 = alloca ptr, align 8
  store ptr %0, ptr %2, align 8, !tbaa !8
  %3 = load ptr, ptr %2, align 8, !tbaa !8
  %4 = ptrtoint ptr %3 to i64
  %5 = and i64 %4, -2
  %6 = inttoptr i64 %5 to ptr
  ret ptr %6
}

; Function Attrs: inlinehint nounwind uwtable
define internal i32 @Vec_IntEntry(ptr noundef %0, i32 noundef %1) #2 {
  %3 = alloca ptr, align 8
  %4 = alloca i32, align 4
  store ptr %0, ptr %3, align 8, !tbaa !10
  store i32 %1, ptr %4, align 4, !tbaa !14
  %5 = load ptr, ptr %3, align 8, !tbaa !10
  %6 = getelementptr inbounds nuw %struct.Vec_Int_t_, ptr %5, i32 0, i32 2
  %7 = load ptr, ptr %6, align 8, !tbaa !27
  %8 = load i32, ptr %4, align 4, !tbaa !14
  %9 = sext i32 %8 to i64
  %10 = getelementptr inbounds i32, ptr %7, i64 %9
  %11 = load i32, ptr %10, align 4, !tbaa !14
  ret i32 %11
}

; Function Attrs: inlinehint nounwind uwtable
define internal i32 @Aig_ObjId(ptr noundef %0) #2 {
  %2 = alloca ptr, align 8
  store ptr %0, ptr %2, align 8, !tbaa !8
  %3 = load ptr, ptr %2, align 8, !tbaa !8
  %4 = getelementptr inbounds nuw %struct.Aig_Obj_t_, ptr %3, i32 0, i32 5
  %5 = load i32, ptr %4, align 4, !tbaa !29
  ret i32 %5
}

; Function Attrs: inlinehint nounwind uwtable
define internal i32 @Aig_ObjFaninC1(ptr noundef %0) #2 {
  %2 = alloca ptr, align 8
  store ptr %0, ptr %2, align 8, !tbaa !8
  %3 = load ptr, ptr %2, align 8, !tbaa !8
  %4 = getelementptr inbounds nuw %struct.Aig_Obj_t_, ptr %3, i32 0, i32 2
  %5 = load ptr, ptr %4, align 8, !tbaa !31
  %6 = call i32 @Aig_IsComplement(ptr noundef %5)
  ret i32 %6
}

; Function Attrs: inlinehint nounwind uwtable
define internal ptr @Aig_ObjFanin1(ptr noundef %0) #2 {
  %2 = alloca ptr, align 8
  store ptr %0, ptr %2, align 8, !tbaa !8
  %3 = load ptr, ptr %2, align 8, !tbaa !8
  %4 = getelementptr inbounds nuw %struct.Aig_Obj_t_, ptr %3, i32 0, i32 2
  %5 = load ptr, ptr %4, align 8, !tbaa !31
  %6 = call ptr @Aig_Regular(ptr noundef %5)
  ret ptr %6
}

; Function Attrs: inlinehint nounwind uwtable
define internal i32 @Aig_ObjFaninC0(ptr noundef %0) #2 {
  %2 = alloca ptr, align 8
  store ptr %0, ptr %2, align 8, !tbaa !8
  %3 = load ptr, ptr %2, align 8, !tbaa !8
  %4 = getelementptr inbounds nuw %struct.Aig_Obj_t_, ptr %3, i32 0, i32 1
  %5 = load ptr, ptr %4, align 8, !tbaa !30
  %6 = call i32 @Aig_IsComplement(ptr noundef %5)
  ret i32 %6
}

; Function Attrs: inlinehint nounwind uwtable
define internal ptr @Aig_ObjFanin0(ptr noundef %0) #2 {
  %2 = alloca ptr, align 8
  store ptr %0, ptr %2, align 8, !tbaa !8
  %3 = load ptr, ptr %2, align 8, !tbaa !8
  %4 = getelementptr inbounds nuw %struct.Aig_Obj_t_, ptr %3, i32 0, i32 1
  %5 = load ptr, ptr %4, align 8, !tbaa !30
  %6 = call ptr @Aig_Regular(ptr noundef %5)
  ret ptr %6
}

; Function Attrs: inlinehint nounwind uwtable
define internal i32 @Aig_ObjIsCo(ptr noundef %0) #2 {
  %2 = alloca ptr, align 8
  store ptr %0, ptr %2, align 8, !tbaa !8
  %3 = load ptr, ptr %2, align 8, !tbaa !8
  %4 = getelementptr inbounds nuw %struct.Aig_Obj_t_, ptr %3, i32 0, i32 3
  %5 = load i64, ptr %4, align 8
  %6 = and i64 %5, 7
  %7 = trunc i64 %6 to i32
  %8 = icmp eq i32 %7, 3
  %9 = zext i1 %8 to i32
  ret i32 %9
}

; Function Attrs: inlinehint nounwind uwtable
define internal i32 @Llb_ObjBddVar(ptr noundef %0, ptr noundef %1) #2 {
  %3 = alloca ptr, align 8
  %4 = alloca ptr, align 8
  store ptr %0, ptr %3, align 8, !tbaa !10
  store ptr %1, ptr %4, align 8, !tbaa !8
  %5 = load ptr, ptr %3, align 8, !tbaa !10
  %6 = load ptr, ptr %4, align 8, !tbaa !8
  %7 = call i32 @Aig_ObjId(ptr noundef %6)
  %8 = call i32 @Vec_IntEntry(ptr noundef %5, i32 noundef %7)
  ret i32 %8
}

; Function Attrs: inlinehint nounwind uwtable
define internal i32 @Aig_ObjIsCi(ptr noundef %0) #2 {
  %2 = alloca ptr, align 8
  store ptr %0, ptr %2, align 8, !tbaa !8
  %3 = load ptr, ptr %2, align 8, !tbaa !8
  %4 = getelementptr inbounds nuw %struct.Aig_Obj_t_, ptr %3, i32 0, i32 3
  %5 = load i64, ptr %4, align 8
  %6 = and i64 %5, 7
  %7 = trunc i64 %6 to i32
  %8 = icmp eq i32 %7, 2
  %9 = zext i1 %8 to i32
  ret i32 %9
}

; Function Attrs: inlinehint nounwind uwtable
define internal i32 @Aig_ObjIsConst1(ptr noundef %0) #2 {
  %2 = alloca ptr, align 8
  store ptr %0, ptr %2, align 8, !tbaa !8
  %3 = load ptr, ptr %2, align 8, !tbaa !8
  %4 = getelementptr inbounds nuw %struct.Aig_Obj_t_, ptr %3, i32 0, i32 3
  %5 = load i64, ptr %4, align 8
  %6 = and i64 %5, 7
  %7 = trunc i64 %6 to i32
  %8 = icmp eq i32 %7, 1
  %9 = zext i1 %8 to i32
  ret i32 %9
}

; Function Attrs: nounwind uwtable
define ptr @Llb_Nonlin4SweepPartitions_rec(ptr noundef %0, ptr noundef %1, ptr noundef %2, ptr noundef %3) #0 {
  %5 = alloca ptr, align 8
  %6 = alloca ptr, align 8
  %7 = alloca ptr, align 8
  %8 = alloca ptr, align 8
  %9 = alloca ptr, align 8
  %10 = alloca ptr, align 8
  %11 = alloca ptr, align 8
  %12 = alloca ptr, align 8
  %13 = alloca ptr, align 8
  %14 = alloca ptr, align 8
  %15 = alloca i32, align 4
  store ptr %0, ptr %6, align 8, !tbaa !45
  store ptr %1, ptr %7, align 8, !tbaa !8
  store ptr %2, ptr %8, align 8, !tbaa !10
  store ptr %3, ptr %9, align 8, !tbaa !40
  call void @llvm.lifetime.start.p0(i64 8, ptr %10) #9
  call void @llvm.lifetime.start.p0(i64 8, ptr %11) #9
  call void @llvm.lifetime.start.p0(i64 8, ptr %12) #9
  call void @llvm.lifetime.start.p0(i64 8, ptr %13) #9
  call void @llvm.lifetime.start.p0(i64 8, ptr %14) #9
  %16 = load ptr, ptr %7, align 8, !tbaa !8
  %17 = call i32 @Aig_ObjIsConst1(ptr noundef %16)
  %18 = icmp ne i32 %17, 0
  br i1 %18, label %19, label %22

19:                                               ; preds = %4
  %20 = load ptr, ptr %6, align 8, !tbaa !45
  %21 = call ptr @Cudd_ReadOne(ptr noundef %20)
  store ptr %21, ptr %5, align 8
  store i32 1, ptr %15, align 4
  br label %125

22:                                               ; preds = %4
  %23 = load ptr, ptr %7, align 8, !tbaa !8
  %24 = call i32 @Aig_ObjIsCi(ptr noundef %23)
  %25 = icmp ne i32 %24, 0
  br i1 %25, label %26, label %32

26:                                               ; preds = %22
  %27 = load ptr, ptr %6, align 8, !tbaa !45
  %28 = load ptr, ptr %8, align 8, !tbaa !10
  %29 = load ptr, ptr %7, align 8, !tbaa !8
  %30 = call i32 @Llb_ObjBddVar(ptr noundef %28, ptr noundef %29)
  %31 = call ptr @Cudd_bddIthVar(ptr noundef %27, i32 noundef %30)
  store ptr %31, ptr %5, align 8
  store i32 1, ptr %15, align 4
  br label %125

32:                                               ; preds = %22
  %33 = load ptr, ptr %7, align 8, !tbaa !8
  %34 = getelementptr inbounds nuw %struct.Aig_Obj_t_, ptr %33, i32 0, i32 6
  %35 = load ptr, ptr %34, align 8, !tbaa !47
  %36 = icmp ne ptr %35, null
  br i1 %36, label %37, label %41

37:                                               ; preds = %32
  %38 = load ptr, ptr %7, align 8, !tbaa !8
  %39 = getelementptr inbounds nuw %struct.Aig_Obj_t_, ptr %38, i32 0, i32 6
  %40 = load ptr, ptr %39, align 8, !tbaa !47
  store ptr %40, ptr %5, align 8
  store i32 1, ptr %15, align 4
  br label %125

41:                                               ; preds = %32
  %42 = load ptr, ptr %7, align 8, !tbaa !8
  %43 = call i32 @Aig_ObjIsCo(ptr noundef %42)
  %44 = icmp ne i32 %43, 0
  br i1 %44, label %45, label %69

45:                                               ; preds = %41
  %46 = load ptr, ptr %6, align 8, !tbaa !45
  %47 = load ptr, ptr %7, align 8, !tbaa !8
  %48 = call ptr @Aig_ObjFanin0(ptr noundef %47)
  %49 = load ptr, ptr %8, align 8, !tbaa !10
  %50 = load ptr, ptr %9, align 8, !tbaa !40
  %51 = call ptr @Llb_Nonlin4SweepPartitions_rec(ptr noundef %46, ptr noundef %48, ptr noundef %49, ptr noundef %50)
  %52 = ptrtoint ptr %51 to i64
  %53 = load ptr, ptr %7, align 8, !tbaa !8
  %54 = call i32 @Aig_ObjFaninC0(ptr noundef %53)
  %55 = sext i32 %54 to i64
  %56 = xor i64 %52, %55
  %57 = inttoptr i64 %56 to ptr
  store ptr %57, ptr %11, align 8, !tbaa !49
  %58 = load ptr, ptr %6, align 8, !tbaa !45
  %59 = load ptr, ptr %6, align 8, !tbaa !45
  %60 = load ptr, ptr %8, align 8, !tbaa !10
  %61 = load ptr, ptr %7, align 8, !tbaa !8
  %62 = call i32 @Llb_ObjBddVar(ptr noundef %60, ptr noundef %61)
  %63 = call ptr @Cudd_bddIthVar(ptr noundef %59, i32 noundef %62)
  %64 = load ptr, ptr %11, align 8, !tbaa !49
  %65 = call ptr @Cudd_bddXnor(ptr noundef %58, ptr noundef %63, ptr noundef %64)
  store ptr %65, ptr %13, align 8, !tbaa !49
  %66 = load ptr, ptr %13, align 8, !tbaa !49
  call void @Cudd_Ref(ptr noundef %66)
  %67 = load ptr, ptr %9, align 8, !tbaa !40
  %68 = load ptr, ptr %13, align 8, !tbaa !49
  call void @Vec_PtrPush(ptr noundef %67, ptr noundef %68)
  store ptr null, ptr %5, align 8
  store i32 1, ptr %15, align 4
  br label %125

69:                                               ; preds = %41
  %70 = load ptr, ptr %6, align 8, !tbaa !45
  %71 = load ptr, ptr %7, align 8, !tbaa !8
  %72 = call ptr @Aig_ObjFanin0(ptr noundef %71)
  %73 = load ptr, ptr %8, align 8, !tbaa !10
  %74 = load ptr, ptr %9, align 8, !tbaa !40
  %75 = call ptr @Llb_Nonlin4SweepPartitions_rec(ptr noundef %70, ptr noundef %72, ptr noundef %73, ptr noundef %74)
  %76 = ptrtoint ptr %75 to i64
  %77 = load ptr, ptr %7, align 8, !tbaa !8
  %78 = call i32 @Aig_ObjFaninC0(ptr noundef %77)
  %79 = sext i32 %78 to i64
  %80 = xor i64 %76, %79
  %81 = inttoptr i64 %80 to ptr
  store ptr %81, ptr %11, align 8, !tbaa !49
  %82 = load ptr, ptr %6, align 8, !tbaa !45
  %83 = load ptr, ptr %7, align 8, !tbaa !8
  %84 = call ptr @Aig_ObjFanin1(ptr noundef %83)
  %85 = load ptr, ptr %8, align 8, !tbaa !10
  %86 = load ptr, ptr %9, align 8, !tbaa !40
  %87 = call ptr @Llb_Nonlin4SweepPartitions_rec(ptr noundef %82, ptr noundef %84, ptr noundef %85, ptr noundef %86)
  %88 = ptrtoint ptr %87 to i64
  %89 = load ptr, ptr %7, align 8, !tbaa !8
  %90 = call i32 @Aig_ObjFaninC1(ptr noundef %89)
  %91 = sext i32 %90 to i64
  %92 = xor i64 %88, %91
  %93 = inttoptr i64 %92 to ptr
  store ptr %93, ptr %12, align 8, !tbaa !49
  %94 = load ptr, ptr %6, align 8, !tbaa !45
  %95 = load ptr, ptr %11, align 8, !tbaa !49
  %96 = load ptr, ptr %12, align 8, !tbaa !49
  %97 = call ptr @Cudd_bddAnd(ptr noundef %94, ptr noundef %95, ptr noundef %96)
  store ptr %97, ptr %10, align 8, !tbaa !49
  %98 = load ptr, ptr %10, align 8, !tbaa !49
  call void @Cudd_Ref(ptr noundef %98)
  %99 = load ptr, ptr %8, align 8, !tbaa !10
  %100 = load ptr, ptr %7, align 8, !tbaa !8
  %101 = call i32 @Llb_ObjBddVar(ptr noundef %99, ptr noundef %100)
  %102 = icmp sge i32 %101, 0
  br i1 %102, label %103, label %120

103:                                              ; preds = %69
  %104 = load ptr, ptr %6, align 8, !tbaa !45
  %105 = load ptr, ptr %8, align 8, !tbaa !10
  %106 = load ptr, ptr %7, align 8, !tbaa !8
  %107 = call i32 @Llb_ObjBddVar(ptr noundef %105, ptr noundef %106)
  %108 = call ptr @Cudd_bddIthVar(ptr noundef %104, i32 noundef %107)
  store ptr %108, ptr %14, align 8, !tbaa !49
  %109 = load ptr, ptr %6, align 8, !tbaa !45
  %110 = load ptr, ptr %14, align 8, !tbaa !49
  %111 = load ptr, ptr %10, align 8, !tbaa !49
  %112 = call ptr @Cudd_bddXnor(ptr noundef %109, ptr noundef %110, ptr noundef %111)
  store ptr %112, ptr %13, align 8, !tbaa !49
  %113 = load ptr, ptr %13, align 8, !tbaa !49
  call void @Cudd_Ref(ptr noundef %113)
  %114 = load ptr, ptr %9, align 8, !tbaa !40
  %115 = load ptr, ptr %13, align 8, !tbaa !49
  call void @Vec_PtrPush(ptr noundef %114, ptr noundef %115)
  %116 = load ptr, ptr %6, align 8, !tbaa !45
  %117 = load ptr, ptr %10, align 8, !tbaa !49
  call void @Cudd_RecursiveDeref(ptr noundef %116, ptr noundef %117)
  %118 = load ptr, ptr %14, align 8, !tbaa !49
  store ptr %118, ptr %10, align 8, !tbaa !49
  %119 = load ptr, ptr %14, align 8, !tbaa !49
  call void @Cudd_Ref(ptr noundef %119)
  br label %120

120:                                              ; preds = %103, %69
  %121 = load ptr, ptr %10, align 8, !tbaa !49
  %122 = load ptr, ptr %7, align 8, !tbaa !8
  %123 = getelementptr inbounds nuw %struct.Aig_Obj_t_, ptr %122, i32 0, i32 6
  store ptr %121, ptr %123, align 8, !tbaa !47
  %124 = load ptr, ptr %10, align 8, !tbaa !49
  store ptr %124, ptr %5, align 8
  store i32 1, ptr %15, align 4
  br label %125

125:                                              ; preds = %120, %45, %37, %26, %19
  call void @llvm.lifetime.end.p0(i64 8, ptr %14) #9
  call void @llvm.lifetime.end.p0(i64 8, ptr %13) #9
  call void @llvm.lifetime.end.p0(i64 8, ptr %12) #9
  call void @llvm.lifetime.end.p0(i64 8, ptr %11) #9
  call void @llvm.lifetime.end.p0(i64 8, ptr %10) #9
  %126 = load ptr, ptr %5, align 8
  ret ptr %126
}