; Function Attrs: nounwind uwtable
define ptr @Llb_Nonlin4SweepPartitions_rec(ptr noundef %0, ptr noundef captures(none) %1, ptr noundef %2, ptr noundef %3) local_unnamed_addr #2 {
  %5 = getelementptr i8, ptr %1, i64 24
  %.val74 = load i64, ptr %5, align 8
  %6 = and i64 %.val74, 7
  switch i64 %6, label %16 [
    i64 1, label %7
    i64 2, label %9
  ]

7:                                                ; preds = %4
  %8 = tail call ptr @Cudd_ReadOne(ptr noundef %0) #13
  br label %91

9:                                                ; preds = %4
  %10 = getelementptr i8, ptr %2, i64 8
  %.val69 = load ptr, ptr %10, align 8, !tbaa !26
  %11 = getelementptr i8, ptr %1, i64 36
  %.val70 = load i32, ptr %11, align 4, !tbaa !24
  %12 = sext i32 %.val70 to i64
  %13 = getelementptr inbounds i32, ptr %.val69, i64 %12
  %14 = load i32, ptr %13, align 4, !tbaa !25
  %15 = tail call ptr @Cudd_bddIthVar(ptr noundef %0, i32 noundef %14) #13
  br label %91

16:                                               ; preds = %4
  %17 = getelementptr inbounds nuw i8, ptr %1, i64 40
  %18 = load ptr, ptr %17, align 8, !tbaa !41
  %.not58 = icmp eq ptr %18, null
  br i1 %.not58, label %19, label %91

19:                                               ; preds = %16
  %.not77 = icmp eq i64 %6, 3
  %20 = getelementptr i8, ptr %1, i64 8
  %.val61 = load ptr, ptr %20, align 8, !tbaa !22
  %21 = ptrtoint ptr %.val61 to i64
  %22 = and i64 %21, -2
  %23 = inttoptr i64 %22 to ptr
  %24 = tail call ptr @Llb_Nonlin4SweepPartitions_rec(ptr noundef %0, ptr noundef %23, ptr noundef %2, ptr noundef %3)
  %25 = ptrtoint ptr %24 to i64
  %.val72 = load ptr, ptr %20, align 8, !tbaa !22
  %26 = ptrtoint ptr %.val72 to i64
  %27 = and i64 %26, 1
  %28 = xor i64 %27, %25
  %29 = inttoptr i64 %28 to ptr
  br i1 %.not77, label %30, label %69

30:                                               ; preds = %19
  %31 = getelementptr i8, ptr %2, i64 8
  %.val67 = load ptr, ptr %31, align 8, !tbaa !26
  %32 = getelementptr i8, ptr %1, i64 36
  %.val68 = load i32, ptr %32, align 4, !tbaa !24
  %33 = sext i32 %.val68 to i64
  %34 = getelementptr inbounds i32, ptr %.val67, i64 %33
  %35 = load i32, ptr %34, align 4, !tbaa !25
  %36 = tail call ptr @Cudd_bddIthVar(ptr noundef %0, i32 noundef %35) #13
  %37 = tail call ptr @Cudd_bddXnor(ptr noundef %0, ptr noundef %36, ptr noundef %29) #13
  tail call void @Cudd_Ref(ptr noundef %37) #13
  %38 = getelementptr inbounds nuw i8, ptr %3, i64 4
  %39 = load i32, ptr %38, align 4, !tbaa !29
  %40 = load i32, ptr %3, align 8, !tbaa !46
  %41 = icmp eq i32 %39, %40
  br i1 %41, label %42, label %.Vec_PtrGrow.exit11_crit_edge.i

.Vec_PtrGrow.exit11_crit_edge.i:                  ; preds = %30
  %.phi.trans.insert.i = getelementptr inbounds nuw i8, ptr %3, i64 8
  %.pre.i = load ptr, ptr %.phi.trans.insert.i, align 8, !tbaa !36
  br label %Vec_PtrPush.exit

42:                                               ; preds = %30
  %43 = icmp slt i32 %39, 16
  br i1 %43, label %44, label %52

44:                                               ; preds = %42
  %45 = getelementptr inbounds nuw i8, ptr %3, i64 8
  %46 = load ptr, ptr %45, align 8, !tbaa !36
  %.not9.i.i = icmp eq ptr %46, null
  br i1 %.not9.i.i, label %49, label %47

47:                                               ; preds = %44
  %48 = tail call dereferenceable_or_null(128) ptr @realloc(ptr noundef nonnull %46, i64 noundef 128) #15
  br label %Vec_PtrGrow.exit.i

49:                                               ; preds = %44
  %50 = tail call noalias dereferenceable_or_null(128) ptr @malloc(i64 noundef 128) #14
  br label %Vec_PtrGrow.exit.i

Vec_PtrGrow.exit.i:                               ; preds = %49, %47
  %51 = phi ptr [ %48, %47 ], [ %50, %49 ]
  store ptr %51, ptr %45, align 8, !tbaa !36
  store i32 16, ptr %3, align 8, !tbaa !46
  br label %Vec_PtrPush.exit

52:                                               ; preds = %42
  %53 = shl nuw nsw i32 %39, 1
  %54 = getelementptr inbounds nuw i8, ptr %3, i64 8
  %55 = load ptr, ptr %54, align 8, !tbaa !36
  %.not9.i10.i = icmp eq ptr %55, null
  %56 = zext nneg i32 %53 to i64
  %57 = shl nuw nsw i64 %56, 3
  br i1 %.not9.i10.i, label %60, label %58

58:                                               ; preds = %52
  %59 = tail call ptr @realloc(ptr noundef nonnull %55, i64 noundef %57) #15
  br label %62

60:                                               ; preds = %52
  %61 = tail call noalias ptr @malloc(i64 noundef %57) #14
  br label %62

62:                                               ; preds = %60, %58
  %63 = phi ptr [ %59, %58 ], [ %61, %60 ]
  store ptr %63, ptr %54, align 8, !tbaa !36
  store i32 %53, ptr %3, align 8, !tbaa !46
  br label %Vec_PtrPush.exit

Vec_PtrPush.exit:                                 ; preds = %.Vec_PtrGrow.exit11_crit_edge.i, %Vec_PtrGrow.exit.i, %62
  %64 = phi ptr [ %.pre.i, %.Vec_PtrGrow.exit11_crit_edge.i ], [ %63, %62 ], [ %51, %Vec_PtrGrow.exit.i ]
  %65 = load i32, ptr %38, align 4, !tbaa !29
  %66 = add nsw i32 %65, 1
  store i32 %66, ptr %38, align 4, !tbaa !29
  %67 = sext i32 %65 to i64
  %68 = getelementptr inbounds ptr, ptr %64, i64 %67
  store ptr %37, ptr %68, align 8, !tbaa !37
  br label %91

69:                                               ; preds = %19
  %70 = getelementptr i8, ptr %1, i64 16
  %.val62 = load ptr, ptr %70, align 8, !tbaa !23
  %71 = ptrtoint ptr %.val62 to i64
  %72 = and i64 %71, -2
  %73 = inttoptr i64 %72 to ptr
  %74 = tail call ptr @Llb_Nonlin4SweepPartitions_rec(ptr noundef %0, ptr noundef %73, ptr noundef %2, ptr noundef %3)
  %75 = ptrtoint ptr %74 to i64
  %.val73 = load ptr, ptr %70, align 8, !tbaa !23
  %76 = ptrtoint ptr %.val73 to i64
  %77 = and i64 %76, 1
  %78 = xor i64 %77, %75
  %79 = inttoptr i64 %78 to ptr
  %80 = tail call ptr @Cudd_bddAnd(ptr noundef %0, ptr noundef %29, ptr noundef %79) #13
  tail call void @Cudd_Ref(ptr noundef %80) #13
  %81 = getelementptr i8, ptr %2, i64 8
  %.val65 = load ptr, ptr %81, align 8, !tbaa !26
  %82 = getelementptr i8, ptr %1, i64 36
  %.val66 = load i32, ptr %82, align 4, !tbaa !24
  %83 = sext i32 %.val66 to i64
  %84 = getelementptr inbounds i32, ptr %.val65, i64 %83
  %85 = load i32, ptr %84, align 4, !tbaa !25
  %86 = icmp sgt i32 %85, -1
  br i1 %86, label %87, label %90

87:                                               ; preds = %69
  %88 = tail call ptr @Cudd_bddIthVar(ptr noundef %0, i32 noundef %85) #13
  %89 = tail call ptr @Cudd_bddXnor(ptr noundef %0, ptr noundef %88, ptr noundef %80) #13
  tail call void @Cudd_Ref(ptr noundef %89) #13
  tail call fastcc void @Vec_PtrPush(ptr noundef %3, ptr noundef %89)
  tail call void @Cudd_RecursiveDeref(ptr noundef %0, ptr noundef %80) #13
  tail call void @Cudd_Ref(ptr noundef %88) #13
  br label %90

90:                                               ; preds = %87, %69
  %.055 = phi ptr [ %88, %87 ], [ %80, %69 ]
  store ptr %.055, ptr %17, align 8, !tbaa !41
  br label %91

91:                                               ; preds = %16, %90, %Vec_PtrPush.exit, %9, %7
  %.0 = phi ptr [ %8, %7 ], [ %15, %9 ], [ null, %Vec_PtrPush.exit ], [ %.055, %90 ], [ %18, %16 ]
  ret ptr %.0
}